; Function Attrs: mustprogress uwtable
define void @_ZN22MLRenderingColorPicker15updateColorInfoEv(ptr noundef nonnull align 8 dereferenceable(56) %0) local_unnamed_addr #3 align 2 personality ptr @__gxx_personality_v0 {
  %2 = alloca %class.QColor, align 4
  %3 = alloca %class.QString, align 8
  %4 = alloca %class.QString, align 8
  %5 = alloca %class.QString, align 8
  %6 = getelementptr inbounds i8, ptr %0, i64 48
  %7 = load ptr, ptr %6, align 8
  %8 = icmp eq ptr %7, null
  br i1 %8, label %_ZN7QStringD2Ev.exit18, label %9

9:                                                ; preds = %1
  %10 = tail call noundef nonnull align 1 dereferenceable(4) ptr @_ZN40MLRenderingUserDefinedGeneralColorAction8getColorEv(ptr noundef nonnull align 8 dereferenceable(20) %7)
  tail call void @llvm.experimental.noalias.scope.decl(metadata !105)
  store i32 1, ptr %2, align 4, !alias.scope !105
  %11 = getelementptr inbounds i8, ptr %2, i64 4
  %12 = load <4 x i8>, ptr %10, align 1, !noalias !105
  %13 = zext <4 x i8> %12 to <4 x i16>
  %14 = mul nuw <4 x i16> %13, <i16 257, i16 257, i16 257, i16 257>
  %15 = shufflevector <4 x i16> %14, <4 x i16> poison, <4 x i32> <i32 3, i32 0, i32 1, i32 2>
  store <4 x i16> %15, ptr %11, align 4, !alias.scope !105
  %16 = getelementptr inbounds i8, ptr %2, i64 12
  store i16 0, ptr %16, align 4, !alias.scope !105
  %17 = tail call noundef ptr @_ZN7QString16fromAscii_helperEPKci(ptr noundef nonnull @.str.35, i32 noundef 35)
  store ptr %17, ptr %4, align 8
  invoke void @_ZNK6QColor4nameEv(ptr dead_on_unwind nonnull writable sret(%class.QString) align 8 %5, ptr noundef nonnull align 4 dereferenceable(14) %2)
          to label %18 unwind label %33

18:                                               ; preds = %9
  invoke void @_ZNK7QString3argERKS_i5QChar(ptr dead_on_unwind nonnull writable sret(%class.QString) align 8 %3, ptr noundef nonnull align 8 dereferenceable(8) %4, ptr noundef nonnull align 8 dereferenceable(8) %5, i32 noundef 0, i16 32)
          to label %19 unwind label %35

19:                                               ; preds = %18
  invoke void @_ZN7QWidget13setStyleSheetERK7QString(ptr noundef nonnull align 8 dereferenceable(48) %0, ptr noundef nonnull align 8 dereferenceable(8) %3)
          to label %20 unwind label %37

20:                                               ; preds = %19
  %21 = load ptr, ptr %3, align 8
  %22 = load atomic i32, ptr %21 monotonic, align 4
  switch i32 %22, label %_ZN9QtPrivate8RefCount5derefEv.exit.i [
    i32 0, label %_ZN9QtPrivate8RefCount5derefEv.exit.thread2.i
    i32 -1, label %_ZN7QStringD2Ev.exit
  ]

_ZN9QtPrivate8RefCount5derefEv.exit.i:            ; preds = %20
  %23 = atomicrmw sub ptr %21, i32 1 seq_cst, align 4
  %.not.i = icmp eq i32 %23, 1
  br i1 %.not.i, label %_ZN9QtPrivate8RefCount5derefEv.exit._ZN9QtPrivate8RefCount5derefEv.exit.thread2_crit_edge.i, label %_ZN7QStringD2Ev.exit

_ZN9QtPrivate8RefCount5derefEv.exit._ZN9QtPrivate8RefCount5derefEv.exit.thread2_crit_edge.i: ; preds = %_ZN9QtPrivate8RefCount5derefEv.exit.i
  %.pre.i = load ptr, ptr %3, align 8
  br label %_ZN9QtPrivate8RefCount5derefEv.exit.thread2.i

_ZN9QtPrivate8RefCount5derefEv.exit.thread2.i:    ; preds = %_ZN9QtPrivate8RefCount5derefEv.exit._ZN9QtPrivate8RefCount5derefEv.exit.thread2_crit_edge.i, %20
  %24 = phi ptr [ %.pre.i, %_ZN9QtPrivate8RefCount5derefEv.exit._ZN9QtPrivate8RefCount5derefEv.exit.thread2_crit_edge.i ], [ %21, %20 ]
  call void @_ZN10QArrayData10deallocateEPS_mm(ptr noundef %24, i64 noundef 2, i64 noundef 8) #23
  br label %_ZN7QStringD2Ev.exit

_ZN7QStringD2Ev.exit:                             ; preds = %20, %_ZN9QtPrivate8RefCount5derefEv.exit.i, %_ZN9QtPrivate8RefCount5derefEv.exit.thread2.i
  %25 = load ptr, ptr %5, align 8
  %26 = load atomic i32, ptr %25 monotonic, align 4
  switch i32 %26, label %_ZN9QtPrivate8RefCount5derefEv.exit.i8 [
    i32 0, label %_ZN9QtPrivate8RefCount5derefEv.exit.thread2.i7
    i32 -1, label %_ZN7QStringD2Ev.exit12
  ]

_ZN9QtPrivate8RefCount5derefEv.exit.i8:           ; preds = %_ZN7QStringD2Ev.exit
  %27 = atomicrmw sub ptr %25, i32 1 seq_cst, align 4
  %.not.i9 = icmp eq i32 %27, 1
  br i1 %.not.i9, label %_ZN9QtPrivate8RefCount5derefEv.exit._ZN9QtPrivate8RefCount5derefEv.exit.thread2_crit_edge.i10, label %_ZN7QStringD2Ev.exit12

_ZN9QtPrivate8RefCount5derefEv.exit._ZN9QtPrivate8RefCount5derefEv.exit.thread2_crit_edge.i10: ; preds = %_ZN9QtPrivate8RefCount5derefEv.exit.i8
  %.pre.i11 = load ptr, ptr %5, align 8
  br label %_ZN9QtPrivate8RefCount5derefEv.exit.thread2.i7

_ZN9QtPrivate8RefCount5derefEv.exit.thread2.i7:   ; preds = %_ZN9QtPrivate8RefCount5derefEv.exit._ZN9QtPrivate8RefCount5derefEv.exit.thread2_crit_edge.i10, %_ZN7QStringD2Ev.exit
  %28 = phi ptr [ %.pre.i11, %_ZN9QtPrivate8RefCount5derefEv.exit._ZN9QtPrivate8RefCount5derefEv.exit.thread2_crit_edge.i10 ], [ %25, %_ZN7QStringD2Ev.exit ]
  call void @_ZN10QArrayData10deallocateEPS_mm(ptr noundef %28, i64 noundef 2, i64 noundef 8) #23
  br label %_ZN7QStringD2Ev.exit12

_ZN7QStringD2Ev.exit12:                           ; preds = %_ZN7QStringD2Ev.exit, %_ZN9QtPrivate8RefCount5derefEv.exit.i8, %_ZN9QtPrivate8RefCount5derefEv.exit.thread2.i7
  %29 = load ptr, ptr %4, align 8
  %30 = load atomic i32, ptr %29 monotonic, align 4
  switch i32 %30, label %_ZN9QtPrivate8RefCount5derefEv.exit.i14 [
    i32 0, label %_ZN9QtPrivate8RefCount5derefEv.exit.thread2.i13
    i32 -1, label %_ZN7QStringD2Ev.exit18
  ]

_ZN9QtPrivate8RefCount5derefEv.exit.i14:          ; preds = %_ZN7QStringD2Ev.exit12
  %31 = atomicrmw sub ptr %29, i32 1 seq_cst, align 4
  %.not.i15 = icmp eq i32 %31, 1
  br i1 %.not.i15, label %_ZN9QtPrivate8RefCount5derefEv.exit._ZN9QtPrivate8RefCount5derefEv.exit.thread2_crit_edge.i16, label %_ZN7QStringD2Ev.exit18

_ZN9QtPrivate8RefCount5derefEv.exit._ZN9QtPrivate8RefCount5derefEv.exit.thread2_crit_edge.i16: ; preds = %_ZN9QtPrivate8RefCount5derefEv.exit.i14
  %.pre.i17 = load ptr, ptr %4, align 8
  br label %_ZN9QtPrivate8RefCount5derefEv.exit.thread2.i13

_ZN9QtPrivate8RefCount5derefEv.exit.thread2.i13:  ; preds = %_ZN9QtPrivate8RefCount5derefEv.exit._ZN9QtPrivate8RefCount5derefEv.exit.thread2_crit_edge.i16, %_ZN7QStringD2Ev.exit12
  %32 = phi ptr [ %.pre.i17, %_ZN9QtPrivate8RefCount5derefEv.exit._ZN9QtPrivate8RefCount5derefEv.exit.thread2_crit_edge.i16 ], [ %29, %_ZN7QStringD2Ev.exit12 ]
  call void @_ZN10QArrayData10deallocateEPS_mm(ptr noundef %32, i64 noundef 2, i64 noundef 8) #23
  br label %_ZN7QStringD2Ev.exit18

_ZN7QStringD2Ev.exit18:                           ; preds = %_ZN9QtPrivate8RefCount5derefEv.exit.thread2.i13, %_ZN9QtPrivate8RefCount5derefEv.exit.i14, %_ZN7QStringD2Ev.exit12, %1
  ret void

33:                                               ; preds = %9
  %34 = landingpad { ptr, i32 }
          cleanup
  br label %40

35:                                               ; preds = %18
  %36 = landingpad { ptr, i32 }
          cleanup
  br label %39

37:                                               ; preds = %19
  %38 = landingpad { ptr, i32 }
          cleanup
  call void @_ZN7QStringD2Ev(ptr noundef nonnull align 8 dereferenceable(8) %3) #23
  br label %39

39:                                               ; preds = %37, %35
  %.pn = phi { ptr, i32 } [ %38, %37 ], [ %36, %35 ]
  call void @_ZN7QStringD2Ev(ptr noundef nonnull align 8 dereferenceable(8) %5) #23
  br label %40

40:                                               ; preds = %39, %33
  %.pn.pn = phi { ptr, i32 } [ %.pn, %39 ], [ %34, %33 ]
  call void @_ZN7QStringD2Ev(ptr noundef nonnull align 8 dereferenceable(8) %4) #23
  resume { ptr, i32 } %.pn.pn
}